; Function Attrs: null_pointer_is_valid sspstrong uwtable
define internal void @dissect_pcep_obj_overload(ptr noundef %0, ptr noundef %1, ptr noundef %2, i32 noundef %3, i32 noundef %4, i32 %5, i32 %6) #0 {
  %.not = icmp eq i32 %4, 8
  br i1 %.not, label %10, label %8

8:                                                ; preds = %7
  %9 = tail call ptr (ptr, ptr, ptr, ptr, i32, i32, ptr, ...) @proto_tree_add_expert_format(ptr noundef %0, ptr noundef %1, ptr noundef nonnull @ei_pcep_subobject_bad_length, ptr noundef %2, i32 noundef %3, i32 noundef %4, ptr noundef nonnull @.str.1397, i32 noundef %4, i32 noundef 8)
  br label %19

10:                                               ; preds = %7
  %11 = load i32, ptr @hf_pcep_obj_overload_flags, align 4
  %12 = tail call ptr @proto_tree_add_item(ptr noundef %0, i32 noundef %11, ptr noundef %2, i32 noundef %3, i32 noundef 1, i32 noundef 0)
  %13 = load i32, ptr @hf_pcep_obj_overload_reserved, align 4
  %14 = add i32 %3, 1
  %15 = tail call ptr @proto_tree_add_item(ptr noundef %0, i32 noundef %13, ptr noundef %2, i32 noundef %14, i32 noundef 1, i32 noundef 0)
  %16 = load i32, ptr @hf_pcep_obj_overload_duration, align 4
  %17 = add i32 %3, 2
  %18 = tail call ptr @proto_tree_add_item(ptr noundef %0, i32 noundef %16, ptr noundef %2, i32 noundef %17, i32 noundef 2, i32 noundef 0)
  br label %19

19:                                               ; preds = %10, %8
  ret void
}